target datalayout = "e-m:e-p270:32:32-p271:32:32-p272:64:64-i64:64-i128:128-f80:128-n8:16:32:64-S128"
target triple = "x86_64-pc-linux-gnu"

%struct.wtap = type { ptr, ptr, i8, i32, i32, ptr, ptr, ptr, i32, ptr, ptr, ptr, ptr, ptr, ptr, ptr, ptr, ptr, ptr, i32, i32, ptr, ptr, ptr, ptr }
%struct.blf_data = type { i64, i64, i64, ptr, ptr, ptr, i32 }
%struct.blf_params = type { ptr, ptr, ptr, i8, i8, ptr }
%struct.blf_channel_to_iface_entry = type { i32, i16, i16, i32 }
%struct.wtapng_if_descr_mandatory_s = type { i32, i64, i32, i32, i8, ptr }

@.str.40 = private unnamed_addr constant [3 x i8] c"%s\00", align 1
@.str.41 = private unnamed_addr constant [7 x i8] c"ETH-%u\00", align 1
@.str.42 = private unnamed_addr constant [10 x i8] c"ETH-%u-%u\00", align 1
@.str.43 = private unnamed_addr constant [8 x i8] c"WLAN-%u\00", align 1
@.str.44 = private unnamed_addr constant [6 x i8] c"FR-%u\00", align 1
@.str.45 = private unnamed_addr constant [7 x i8] c"LIN-%u\00", align 1
@.str.46 = private unnamed_addr constant [7 x i8] c"CAN-%u\00", align 1
@.str.47 = private unnamed_addr constant [12 x i8] c"ENCAP_%d-%u\00", align 1

; Function Attrs: nounwind null_pointer_is_valid sspstrong uwtable
define internal i64 @blf_calc_key_value(i32 noundef %0, i16 noundef zeroext %1, i16 noundef zeroext %2) #0 {
  %4 = alloca i32, align 4
  %5 = alloca i16, align 2
  %6 = alloca i16, align 2
  store i32 %0, ptr %4, align 4
  store i16 %1, ptr %5, align 2
  store i16 %2, ptr %6, align 2
  %7 = load i32, ptr %4, align 4
  %8 = sext i32 %7 to i64
  %9 = shl i64 %8, 32
  %10 = load i16, ptr %6, align 2
  %11 = zext i16 %10 to i64
  %12 = shl i64 %11, 16
  %13 = or i64 %9, %12
  %14 = load i16, ptr %5, align 2
  %15 = zext i16 %14 to i64
  %16 = or i64 %13, %15
  ret i64 %16
}

; Function Attrs: null_pointer_is_valid sspstrong uwtable
define internal void @add_interface_name(ptr noundef %0, i32 noundef %1, i16 noundef zeroext %2, i16 noundef zeroext %3, ptr noundef %4) #2 {
  %6 = alloca ptr, align 8
  %7 = alloca i32, align 4
  %8 = alloca i16, align 2
  %9 = alloca i16, align 2
  %10 = alloca ptr, align 8
  store ptr %0, ptr %6, align 8
  store i32 %1, ptr %7, align 4
  store i16 %2, ptr %8, align 2
  store i16 %3, ptr %9, align 2
  store ptr %4, ptr %10, align 8
  %11 = load ptr, ptr %10, align 8
  %12 = icmp ne ptr %11, null
  br i1 %12, label %13, label %17

13:                                               ; preds = %5
  %14 = load ptr, ptr %6, align 8
  %15 = load ptr, ptr %10, align 8
  %16 = call i32 (ptr, i32, ptr, ...) @wtap_block_add_string_option_format(ptr noundef %14, i32 noundef 2, ptr noundef @.str.40, ptr noundef %15)
  br label %63

17:                                               ; preds = %5
  %18 = load i32, ptr %7, align 4
  switch i32 %18, label %56 [
    i32 1, label %19
    i32 20, label %36
    i32 106, label %41
    i32 107, label %46
    i32 125, label %51
  ]

19:                                               ; preds = %17
  %20 = load i16, ptr %9, align 2
  %21 = zext i16 %20 to i32
  %22 = icmp eq i32 %21, 65535
  br i1 %22, label %23, label %28

23:                                               ; preds = %19
  %24 = load ptr, ptr %6, align 8
  %25 = load i16, ptr %8, align 2
  %26 = zext i16 %25 to i32
  %27 = call i32 (ptr, i32, ptr, ...) @wtap_block_add_string_option_format(ptr noundef %24, i32 noundef 2, ptr noundef @.str.41, i32 noundef %26)
  br label %35

28:                                               ; preds = %19
  %29 = load ptr, ptr %6, align 8
  %30 = load i16, ptr %8, align 2
  %31 = zext i16 %30 to i32
  %32 = load i16, ptr %9, align 2
  %33 = zext i16 %32 to i32
  %34 = call i32 (ptr, i32, ptr, ...) @wtap_block_add_string_option_format(ptr noundef %29, i32 noundef 2, ptr noundef @.str.42, i32 noundef %31, i32 noundef %33)
  br label %35

35:                                               ; preds = %28, %23
  br label %62

36:                                               ; preds = %17
  %37 = load ptr, ptr %6, align 8
  %38 = load i16, ptr %8, align 2
  %39 = zext i16 %38 to i32
  %40 = call i32 (ptr, i32, ptr, ...) @wtap_block_add_string_option_format(ptr noundef %37, i32 noundef 2, ptr noundef @.str.43, i32 noundef %39)
  br label %62

41:                                               ; preds = %17
  %42 = load ptr, ptr %6, align 8
  %43 = load i16, ptr %8, align 2
  %44 = zext i16 %43 to i32
  %45 = call i32 (ptr, i32, ptr, ...) @wtap_block_add_string_option_format(ptr noundef %42, i32 noundef 2, ptr noundef @.str.44, i32 noundef %44)
  br label %62

46:                                               ; preds = %17
  %47 = load ptr, ptr %6, align 8
  %48 = load i16, ptr %8, align 2
  %49 = zext i16 %48 to i32
  %50 = call i32 (ptr, i32, ptr, ...) @wtap_block_add_string_option_format(ptr noundef %47, i32 noundef 2, ptr noundef @.str.45, i32 noundef %49)
  br label %62

51:                                               ; preds = %17
  %52 = load ptr, ptr %6, align 8
  %53 = load i16, ptr %8, align 2
  %54 = zext i16 %53 to i32
  %55 = call i32 (ptr, i32, ptr, ...) @wtap_block_add_string_option_format(ptr noundef %52, i32 noundef 2, ptr noundef @.str.46, i32 noundef %54)
  br label %62

56:                                               ; preds = %17
  %57 = load ptr, ptr %6, align 8
  %58 = load i32, ptr %7, align 4
  %59 = load i16, ptr %8, align 2
  %60 = zext i16 %59 to i32
  %61 = call i32 (ptr, i32, ptr, ...) @wtap_block_add_string_option_format(ptr noundef %57, i32 noundef 2, ptr noundef @.str.47, i32 noundef %58, i32 noundef %60)
  br label %62

62:                                               ; preds = %56, %51, %46, %41, %36, %35
  br label %63

63:                                               ; preds = %62, %13
  ret void
}

; Function Attrs: null_pointer_is_valid sspstrong uwtable
define internal i32 @blf_add_interface(ptr noundef %0, i32 noundef %1, i32 noundef %2, i16 noundef zeroext %3, ptr noundef %4) #2 {
  %6 = alloca ptr, align 8
  %7 = alloca i32, align 4
  %8 = alloca i32, align 4
  %9 = alloca i16, align 2
  %10 = alloca ptr, align 8
  %11 = alloca ptr, align 8
  %12 = alloca ptr, align 8
  %13 = alloca ptr, align 8
  %14 = alloca ptr, align 8
  %15 = alloca i64, align 8
  %16 = alloca i64, align 8
  %17 = alloca ptr, align 8
  %18 = alloca ptr, align 8
  %19 = alloca i64, align 8
  %20 = alloca i64, align 8
  %21 = alloca ptr, align 8
  %22 = alloca ptr, align 8
  store ptr %0, ptr %6, align 8
  store i32 %1, ptr %7, align 4
  store i32 %2, ptr %8, align 4
  store i16 %3, ptr %9, align 2
  store ptr %4, ptr %10, align 8
  call void @llvm.lifetime.start.p0(i64 8, ptr %11) #13
  %23 = call ptr @wtap_block_create(i32 noundef 1)
  store ptr %23, ptr %11, align 8
  call void @llvm.lifetime.start.p0(i64 8, ptr %12) #13
  %24 = load ptr, ptr %11, align 8
  %25 = call ptr @wtap_block_get_mandatory_data(ptr noundef %24)
  store ptr %25, ptr %12, align 8
  call void @llvm.lifetime.start.p0(i64 8, ptr %13) #13
  store ptr null, ptr %13, align 8
  %26 = load i32, ptr %7, align 4
  %27 = load ptr, ptr %12, align 8
  %28 = getelementptr inbounds nuw %struct.wtapng_if_descr_mandatory_s, ptr %27, i32 0, i32 0
  store i32 %26, ptr %28, align 8
  %29 = load ptr, ptr %11, align 8
  %30 = load i32, ptr %7, align 4
  %31 = load i32, ptr %8, align 4
  %32 = trunc i32 %31 to i16
  %33 = load i16, ptr %9, align 2
  %34 = load ptr, ptr %10, align 8
  call void @add_interface_name(ptr noundef %29, i32 noundef %30, i16 noundef zeroext %32, i16 noundef zeroext %33, ptr noundef %34)
  %35 = load ptr, ptr %12, align 8
  %36 = getelementptr inbounds nuw %struct.wtapng_if_descr_mandatory_s, ptr %35, i32 0, i32 1
  store i64 1000000000, ptr %36, align 8
  %37 = load ptr, ptr %12, align 8
  %38 = getelementptr inbounds nuw %struct.wtapng_if_descr_mandatory_s, ptr %37, i32 0, i32 2
  store i32 9, ptr %38, align 8
  %39 = load ptr, ptr %11, align 8
  %40 = call i32 @wtap_block_add_uint8_option(ptr noundef %39, i32 noundef 9, i8 noundef zeroext 9)
  %41 = load ptr, ptr %12, align 8
  %42 = getelementptr inbounds nuw %struct.wtapng_if_descr_mandatory_s, ptr %41, i32 0, i32 3
  store i32 262144, ptr %42, align 4
  %43 = load ptr, ptr %12, align 8
  %44 = getelementptr inbounds nuw %struct.wtapng_if_descr_mandatory_s, ptr %43, i32 0, i32 4
  store i8 0, ptr %44, align 8
  %45 = load ptr, ptr %12, align 8
  %46 = getelementptr inbounds nuw %struct.wtapng_if_descr_mandatory_s, ptr %45, i32 0, i32 5
  store ptr null, ptr %46, align 8
  %47 = load ptr, ptr %6, align 8
  %48 = getelementptr inbounds nuw %struct.blf_params, ptr %47, i32 0, i32 0
  %49 = load ptr, ptr %48, align 8
  %50 = load ptr, ptr %11, align 8
  call void @wtap_add_idb(ptr noundef %49, ptr noundef %50)
  %51 = load ptr, ptr %6, align 8
  %52 = getelementptr inbounds nuw %struct.blf_params, ptr %51, i32 0, i32 0
  %53 = load ptr, ptr %52, align 8
  %54 = getelementptr inbounds nuw %struct.wtap, ptr %53, i32 0, i32 19
  %55 = load i32, ptr %54, align 8
  %56 = icmp eq i32 %55, -2
  br i1 %56, label %57, label %65

57:                                               ; preds = %5
  %58 = load ptr, ptr %12, align 8
  %59 = getelementptr inbounds nuw %struct.wtapng_if_descr_mandatory_s, ptr %58, i32 0, i32 0
  %60 = load i32, ptr %59, align 8
  %61 = load ptr, ptr %6, align 8
  %62 = getelementptr inbounds nuw %struct.blf_params, ptr %61, i32 0, i32 0
  %63 = load ptr, ptr %62, align 8
  %64 = getelementptr inbounds nuw %struct.wtap, ptr %63, i32 0, i32 19
  store i32 %60, ptr %64, align 8
  br label %81

65:                                               ; preds = %5
  %66 = load ptr, ptr %6, align 8
  %67 = getelementptr inbounds nuw %struct.blf_params, ptr %66, i32 0, i32 0
  %68 = load ptr, ptr %67, align 8
  %69 = getelementptr inbounds nuw %struct.wtap, ptr %68, i32 0, i32 19
  %70 = load i32, ptr %69, align 8
  %71 = load ptr, ptr %12, align 8
  %72 = getelementptr inbounds nuw %struct.wtapng_if_descr_mandatory_s, ptr %71, i32 0, i32 0
  %73 = load i32, ptr %72, align 8
  %74 = icmp ne i32 %70, %73
  br i1 %74, label %75, label %80

75:                                               ; preds = %65
  %76 = load ptr, ptr %6, align 8
  %77 = getelementptr inbounds nuw %struct.blf_params, ptr %76, i32 0, i32 0
  %78 = load ptr, ptr %77, align 8
  %79 = getelementptr inbounds nuw %struct.wtap, ptr %78, i32 0, i32 19
  store i32 -1, ptr %79, align 8
  br label %80

80:                                               ; preds = %75, %65
  br label %81

81:                                               ; preds = %80, %57
  call void @llvm.lifetime.start.p0(i64 8, ptr %14) #13
  store ptr null, ptr %14, align 8
  call void @llvm.lifetime.start.p0(i64 8, ptr %15) #13
  store i64 1, ptr %15, align 8
  call void @llvm.lifetime.start.p0(i64 8, ptr %16) #13
  store i64 8, ptr %16, align 8
  call void @llvm.lifetime.start.p0(i64 8, ptr %17) #13
  %82 = load i64, ptr %16, align 8
  %83 = icmp eq i64 %82, 1
  br i1 %83, label %84, label %87

84:                                               ; preds = %81
  %85 = load i64, ptr %15, align 8
  %86 = call noalias ptr @g_malloc(i64 noundef %85) #14
  store ptr %86, ptr %17, align 8
  br label %108

87:                                               ; preds = %81
  %88 = load i64, ptr %15, align 8
  %89 = call i1 @llvm.is.constant.i64(i64 %88)
  br i1 %89, label %90, label %103

90:                                               ; preds = %87
  %91 = load i64, ptr %16, align 8
  %92 = icmp eq i64 %91, 0
  br i1 %92, label %98, label %93

93:                                               ; preds = %90
  %94 = load i64, ptr %15, align 8
  %95 = load i64, ptr %16, align 8
  %96 = udiv i64 -1, %95
  %97 = icmp ule i64 %94, %96
  br i1 %97, label %98, label %103

98:                                               ; preds = %93, %90
  %99 = load i64, ptr %15, align 8
  %100 = load i64, ptr %16, align 8
  %101 = mul i64 %99, %100
  %102 = call noalias ptr @g_malloc(i64 noundef %101) #14
  store ptr %102, ptr %17, align 8
  br label %107

103:                                              ; preds = %93, %87
  %104 = load i64, ptr %15, align 8
  %105 = load i64, ptr %16, align 8
  %106 = call noalias ptr @g_malloc_n(i64 noundef %104, i64 noundef %105) #16
  store ptr %106, ptr %17, align 8
  br label %107

107:                                              ; preds = %103, %98
  br label %108

108:                                              ; preds = %107, %84
  %109 = load ptr, ptr %17, align 8
  store ptr %109, ptr %18, align 8
  call void @llvm.lifetime.end.p0(i64 8, ptr %17) #13
  call void @llvm.lifetime.end.p0(i64 8, ptr %16) #13
  call void @llvm.lifetime.end.p0(i64 8, ptr %15) #13
  %110 = load ptr, ptr %18, align 8
  store ptr %110, ptr %14, align 8
  %111 = load i32, ptr %7, align 4
  %112 = load i32, ptr %8, align 4
  %113 = trunc i32 %112 to i16
  %114 = load i16, ptr %9, align 2
  %115 = call i64 @blf_calc_key_value(i32 noundef %111, i16 noundef zeroext %113, i16 noundef zeroext %114)
  %116 = load ptr, ptr %14, align 8
  store i64 %115, ptr %116, align 8
  call void @llvm.lifetime.start.p0(i64 8, ptr %19) #13
  store i64 1, ptr %19, align 8
  call void @llvm.lifetime.start.p0(i64 8, ptr %20) #13
  store i64 12, ptr %20, align 8
  call void @llvm.lifetime.start.p0(i64 8, ptr %21) #13
  %117 = load i64, ptr %20, align 8
  %118 = icmp eq i64 %117, 1
  br i1 %118, label %119, label %122

119:                                              ; preds = %108
  %120 = load i64, ptr %19, align 8
  %121 = call noalias ptr @g_malloc(i64 noundef %120) #14
  store ptr %121, ptr %21, align 8
  br label %143

122:                                              ; preds = %108
  %123 = load i64, ptr %19, align 8
  %124 = call i1 @llvm.is.constant.i64(i64 %123)
  br i1 %124, label %125, label %138

125:                                              ; preds = %122
  %126 = load i64, ptr %20, align 8
  %127 = icmp eq i64 %126, 0
  br i1 %127, label %133, label %128

128:                                              ; preds = %125
  %129 = load i64, ptr %19, align 8
  %130 = load i64, ptr %20, align 8
  %131 = udiv i64 -1, %130
  %132 = icmp ule i64 %129, %131
  br i1 %132, label %133, label %138

133:                                              ; preds = %128, %125
  %134 = load i64, ptr %19, align 8
  %135 = load i64, ptr %20, align 8
  %136 = mul i64 %134, %135
  %137 = call noalias ptr @g_malloc(i64 noundef %136) #14
  store ptr %137, ptr %21, align 8
  br label %142

138:                                              ; preds = %128, %122
  %139 = load i64, ptr %19, align 8
  %140 = load i64, ptr %20, align 8
  %141 = call noalias ptr @g_malloc_n(i64 noundef %139, i64 noundef %140) #16
  store ptr %141, ptr %21, align 8
  br label %142

142:                                              ; preds = %138, %133
  br label %143

143:                                              ; preds = %142, %119
  %144 = load ptr, ptr %21, align 8
  store ptr %144, ptr %22, align 8
  call void @llvm.lifetime.end.p0(i64 8, ptr %21) #13
  call void @llvm.lifetime.end.p0(i64 8, ptr %20) #13
  call void @llvm.lifetime.end.p0(i64 8, ptr %19) #13
  %145 = load ptr, ptr %22, align 8
  store ptr %145, ptr %13, align 8
  %146 = load i32, ptr %8, align 4
  %147 = trunc i32 %146 to i16
  %148 = load ptr, ptr %13, align 8
  %149 = getelementptr inbounds nuw %struct.blf_channel_to_iface_entry, ptr %148, i32 0, i32 1
  store i16 %147, ptr %149, align 4
  %150 = load i16, ptr %9, align 2
  %151 = load ptr, ptr %13, align 8
  %152 = getelementptr inbounds nuw %struct.blf_channel_to_iface_entry, ptr %151, i32 0, i32 2
  store i16 %150, ptr %152, align 2
  %153 = load i32, ptr %7, align 4
  %154 = load ptr, ptr %13, align 8
  %155 = getelementptr inbounds nuw %struct.blf_channel_to_iface_entry, ptr %154, i32 0, i32 0
  store i32 %153, ptr %155, align 4
  %156 = load ptr, ptr %6, align 8
  %157 = getelementptr inbounds nuw %struct.blf_params, ptr %156, i32 0, i32 5
  %158 = load ptr, ptr %157, align 8
  %159 = getelementptr inbounds nuw %struct.blf_data, ptr %158, i32 0, i32 6
  %160 = load i32, ptr %159, align 8
  %161 = add i32 %160, 1
  store i32 %161, ptr %159, align 8
  %162 = load ptr, ptr %13, align 8
  %163 = getelementptr inbounds nuw %struct.blf_channel_to_iface_entry, ptr %162, i32 0, i32 3
  store i32 %160, ptr %163, align 4
  %164 = load ptr, ptr %6, align 8
  %165 = getelementptr inbounds nuw %struct.blf_params, ptr %164, i32 0, i32 5
  %166 = load ptr, ptr %165, align 8
  %167 = getelementptr inbounds nuw %struct.blf_data, ptr %166, i32 0, i32 4
  %168 = load ptr, ptr %167, align 8
  %169 = load ptr, ptr %14, align 8
  %170 = load ptr, ptr %13, align 8
  %171 = call i32 @g_hash_table_insert(ptr noundef %168, ptr noundef %169, ptr noundef %170)
  %172 = load ptr, ptr %13, align 8
  %173 = getelementptr inbounds nuw %struct.blf_channel_to_iface_entry, ptr %172, i32 0, i32 3
  %174 = load i32, ptr %173, align 4
  call void @llvm.lifetime.end.p0(i64 8, ptr %14) #13
  call void @llvm.lifetime.end.p0(i64 8, ptr %13) #13
  call void @llvm.lifetime.end.p0(i64 8, ptr %12) #13
  call void @llvm.lifetime.end.p0(i64 8, ptr %11) #13
  ret i32 %174
}