; Function Attrs: null_pointer_is_valid sspstrong uwtable
define internal fastcc i32 @blf_add_interface(ptr noundef readonly captures(none) %0, i32 noundef range(i32 1, 156) %1, i32 noundef range(i32 0, 65536) %2, i16 noundef zeroext %3, ptr noundef %4) unnamed_addr #2 {
  %6 = tail call ptr @wtap_block_create(i32 noundef 1)
  %7 = tail call ptr @wtap_block_get_mandatory_data(ptr noundef %6)
  store i32 %1, ptr %7, align 8
  %.not.i = icmp eq ptr %4, null
  br i1 %.not.i, label %10, label %8

8:                                                ; preds = %5
  %9 = tail call i32 (ptr, i32, ptr, ...) @wtap_block_add_string_option_format(ptr noundef %6, i32 noundef 2, ptr noundef nonnull @.str.40, ptr noundef nonnull %4)
  br label %add_interface_name.exit

10:                                               ; preds = %5
  %trunc.i = trunc nuw i32 %1 to i8
  switch i8 %trunc.i, label %26 [
    i8 1, label %11
    i8 20, label %18
    i8 106, label %20
    i8 107, label %22
    i8 125, label %24
  ]

11:                                               ; preds = %10
  %12 = icmp eq i16 %3, -1
  br i1 %12, label %13, label %15

13:                                               ; preds = %11
  %14 = tail call i32 (ptr, i32, ptr, ...) @wtap_block_add_string_option_format(ptr noundef %6, i32 noundef 2, ptr noundef nonnull @.str.41, i32 noundef %2)
  br label %add_interface_name.exit

15:                                               ; preds = %11
  %16 = zext i16 %3 to i32
  %17 = tail call i32 (ptr, i32, ptr, ...) @wtap_block_add_string_option_format(ptr noundef %6, i32 noundef 2, ptr noundef nonnull @.str.42, i32 noundef %2, i32 noundef %16)
  br label %add_interface_name.exit

18:                                               ; preds = %10
  %19 = tail call i32 (ptr, i32, ptr, ...) @wtap_block_add_string_option_format(ptr noundef %6, i32 noundef 2, ptr noundef nonnull @.str.43, i32 noundef %2)
  br label %add_interface_name.exit

20:                                               ; preds = %10
  %21 = tail call i32 (ptr, i32, ptr, ...) @wtap_block_add_string_option_format(ptr noundef %6, i32 noundef 2, ptr noundef nonnull @.str.44, i32 noundef %2)
  br label %add_interface_name.exit

22:                                               ; preds = %10
  %23 = tail call i32 (ptr, i32, ptr, ...) @wtap_block_add_string_option_format(ptr noundef %6, i32 noundef 2, ptr noundef nonnull @.str.45, i32 noundef %2)
  br label %add_interface_name.exit

24:                                               ; preds = %10
  %25 = tail call i32 (ptr, i32, ptr, ...) @wtap_block_add_string_option_format(ptr noundef %6, i32 noundef 2, ptr noundef nonnull @.str.46, i32 noundef %2)
  br label %add_interface_name.exit

26:                                               ; preds = %10
  %27 = tail call i32 (ptr, i32, ptr, ...) @wtap_block_add_string_option_format(ptr noundef %6, i32 noundef 2, ptr noundef nonnull @.str.47, i32 noundef range(i32 1, 156) %1, i32 noundef %2)
  br label %add_interface_name.exit

add_interface_name.exit:                          ; preds = %8, %13, %15, %18, %20, %22, %24, %26
  %28 = getelementptr inbounds nuw i8, ptr %7, i64 8
  store i64 1000000000, ptr %28, align 8
  %29 = getelementptr inbounds nuw i8, ptr %7, i64 16
  store i32 9, ptr %29, align 8
  %30 = tail call i32 @wtap_block_add_uint8_option(ptr noundef %6, i32 noundef 9, i8 noundef zeroext 9)
  %31 = getelementptr inbounds nuw i8, ptr %7, i64 20
  store i32 262144, ptr %31, align 4
  %32 = getelementptr inbounds nuw i8, ptr %7, i64 24
  store i8 0, ptr %32, align 8
  %33 = getelementptr inbounds nuw i8, ptr %7, i64 32
  store ptr null, ptr %33, align 8
  %34 = load ptr, ptr %0, align 8
  tail call void @wtap_add_idb(ptr noundef %34, ptr noundef %6)
  %35 = load ptr, ptr %0, align 8
  %36 = getelementptr inbounds nuw i8, ptr %35, i64 144
  %37 = load i32, ptr %36, align 8
  %38 = icmp eq i32 %37, -2
  %39 = load i32, ptr %7, align 8
  br i1 %38, label %.sink.split, label %40

40:                                               ; preds = %add_interface_name.exit
  %.not = icmp eq i32 %37, %39
  br i1 %.not, label %41, label %.sink.split

.sink.split:                                      ; preds = %40, %add_interface_name.exit
  %.sink = phi i32 [ %39, %add_interface_name.exit ], [ -1, %40 ]
  store i32 %.sink, ptr %36, align 8
  br label %41

41:                                               ; preds = %.sink.split, %40
  %42 = trunc nuw i32 %2 to i16
  %43 = tail call noalias dereferenceable_or_null(8) ptr @g_malloc(i64 noundef 8) #15
  %44 = zext nneg i32 %1 to i64
  %45 = shl nuw nsw i64 %44, 32
  %46 = zext i16 %3 to i64
  %47 = shl nuw nsw i64 %46, 16
  %48 = or disjoint i64 %47, %45
  %49 = zext nneg i32 %2 to i64
  %50 = or disjoint i64 %48, %49
  store i64 %50, ptr %43, align 8
  %51 = tail call noalias dereferenceable_or_null(12) ptr @g_malloc(i64 noundef 12) #15
  %52 = getelementptr inbounds nuw i8, ptr %51, i64 4
  store i16 %42, ptr %52, align 4
  %53 = getelementptr inbounds nuw i8, ptr %51, i64 6
  store i16 %3, ptr %53, align 2
  store i32 %1, ptr %51, align 4
  %54 = getelementptr inbounds nuw i8, ptr %0, i64 32
  %55 = load ptr, ptr %54, align 8
  %56 = getelementptr inbounds nuw i8, ptr %55, i64 48
  %57 = load i32, ptr %56, align 8
  %58 = add i32 %57, 1
  store i32 %58, ptr %56, align 8
  %59 = getelementptr inbounds nuw i8, ptr %51, i64 8
  store i32 %57, ptr %59, align 4
  %60 = load ptr, ptr %54, align 8
  %61 = getelementptr inbounds nuw i8, ptr %60, i64 32
  %62 = load ptr, ptr %61, align 8
  %63 = tail call i32 @g_hash_table_insert(ptr noundef %62, ptr noundef %43, ptr noundef %51)
  %64 = load i32, ptr %59, align 4
  ret i32 %64
}